; Function Attrs: mustprogress nofree norecurse nosync nounwind willreturn memory(none) uwtable
define noundef signext range(i8 63, 122) i8 @_Z26common_sampler_type_to_chr19common_sampler_type(i32 noundef %0) local_unnamed_addr #11 {
  %switch.tableidx = add i32 %0, -1
  %2 = icmp ult i32 %switch.tableidx, 10
  br i1 %2, label %switch.lookup, label %4

switch.lookup:                                    ; preds = %1
  %3 = zext nneg i32 %switch.tableidx to i64
  %switch.gep = getelementptr inbounds nuw [10 x i8], ptr @switch.table._Z26common_sampler_type_to_chr19common_sampler_type, i64 0, i64 %3
  %switch.load = load i8, ptr %switch.gep, align 1
  br label %4

4:                                                ; preds = %1, %switch.lookup
  %.0 = phi i8 [ %switch.load, %switch.lookup ], [ 63, %1 ]
  ret i8 %.0
}